target datalayout = "e-m:e-p270:32:32-p271:32:32-p272:64:64-i64:64-i128:128-f80:128-n8:16:32:64-S128"
target triple = "x86_64-pc-linux-gnu"

%"class.clang::ento::SVal" = type <{ ptr, i8, [7 x i8] }>
%"class.clang::ento::StoreManager::FindUniqueBinding" = type <{ %"class.clang::ento::StoreManager::BindingsHandler", ptr, ptr, i8, [7 x i8] }>
%"class.clang::ento::StoreManager::BindingsHandler" = type { ptr }

; Function Attrs: mustprogress nounwind uwtable
define dso_local noundef zeroext i1 @_ZN5clang4ento12StoreManager17FindUniqueBinding13HandleBindingERS1_PKvPKNS0_9MemRegionENS0_4SValE(ptr noundef nonnull align 8 dereferenceable(25) %0, ptr noundef nonnull align 8 dereferenceable(40) %1, ptr noundef %2, ptr noundef %3, ptr %4, i8 %5) unnamed_addr #0 align 2 {
  %7 = alloca i1, align 1
  %8 = alloca %"class.clang::ento::SVal", align 8
  %9 = alloca ptr, align 8
  %10 = alloca ptr, align 8
  %11 = alloca ptr, align 8
  %12 = alloca ptr, align 8
  %13 = alloca ptr, align 8
  %14 = getelementptr inbounds nuw { ptr, i8 }, ptr %8, i32 0, i32 0
  store ptr %4, ptr %14, align 8
  %15 = getelementptr inbounds nuw { ptr, i8 }, ptr %8, i32 0, i32 1
  store i8 %5, ptr %15, align 8
  store ptr %0, ptr %9, align 8
  store ptr %1, ptr %10, align 8
  store ptr %2, ptr %11, align 8
  store ptr %3, ptr %12, align 8
  %16 = load ptr, ptr %9, align 8
  %17 = call noundef ptr @_ZNK5clang4ento4SVal14getAsLocSymbolEb(ptr noundef nonnull align 8 dereferenceable(9) %8, i1 noundef zeroext false)
  store ptr %17, ptr %13, align 8
  %18 = load ptr, ptr %13, align 8
  %19 = icmp ne ptr %18, null
  br i1 %19, label %20, label %25

20:                                               ; preds = %6
  %21 = load ptr, ptr %13, align 8
  %22 = getelementptr inbounds nuw %"class.clang::ento::StoreManager::FindUniqueBinding", ptr %16, i32 0, i32 1
  %23 = load ptr, ptr %22, align 8
  %24 = icmp ne ptr %21, %23
  br i1 %24, label %25, label %26

25:                                               ; preds = %20, %6
  store i1 true, ptr %7, align 1
  br label %36

26:                                               ; preds = %20
  %27 = getelementptr inbounds nuw %"class.clang::ento::StoreManager::FindUniqueBinding", ptr %16, i32 0, i32 2
  %28 = load ptr, ptr %27, align 8
  %29 = icmp ne ptr %28, null
  br i1 %29, label %30, label %32

30:                                               ; preds = %26
  %31 = getelementptr inbounds nuw %"class.clang::ento::StoreManager::FindUniqueBinding", ptr %16, i32 0, i32 3
  store i8 0, ptr %31, align 8
  store i1 false, ptr %7, align 1
  br label %36

32:                                               ; preds = %26
  %33 = load ptr, ptr %12, align 8
  %34 = getelementptr inbounds nuw %"class.clang::ento::StoreManager::FindUniqueBinding", ptr %16, i32 0, i32 2
  store ptr %33, ptr %34, align 8
  br label %35

35:                                               ; preds = %32
  store i1 true, ptr %7, align 1
  br label %36

36:                                               ; preds = %35, %30, %25
  %37 = load i1, ptr %7, align 1
  ret i1 %37
}