; Function Attrs: mustprogress nounwind uwtable
define dso_local noundef zeroext i1 @_ZN5clang4ento12StoreManager17FindUniqueBinding13HandleBindingERS1_PKvPKNS0_9MemRegionENS0_4SValE(ptr noundef nonnull align 8 captures(none) dereferenceable(25) %0, ptr nonnull readnone align 8 captures(none) %1, ptr readnone captures(none) %2, ptr noundef %3, ptr %4, i8 %5) unnamed_addr #1 align 2 {
  %7 = alloca %"class.clang::ento::SVal", align 8
  store ptr %4, ptr %7, align 8
  %8 = getelementptr inbounds nuw i8, ptr %7, i64 8
  store i8 %5, ptr %8, align 8
  %9 = call noundef ptr @_ZNK5clang4ento4SVal14getAsLocSymbolEb(ptr noundef nonnull align 8 dereferenceable(9) %7, i1 noundef zeroext false) #10
  %.not = icmp ne ptr %9, null
  %10 = getelementptr inbounds nuw i8, ptr %0, i64 8
  %11 = load ptr, ptr %10, align 8
  %.not6 = icmp eq ptr %9, %11
  %or.cond = select i1 %.not, i1 %.not6, i1 false
  br i1 %or.cond, label %12, label %18

12:                                               ; preds = %6
  %13 = getelementptr inbounds nuw i8, ptr %0, i64 16
  %14 = load ptr, ptr %13, align 8
  %.not7 = icmp eq ptr %14, null
  br i1 %.not7, label %17, label %15

15:                                               ; preds = %12
  %16 = getelementptr inbounds nuw i8, ptr %0, i64 24
  store i8 0, ptr %16, align 8
  br label %18

17:                                               ; preds = %12
  store ptr %3, ptr %13, align 8
  br label %18

18:                                               ; preds = %6, %17, %15
  %.0 = phi i1 [ false, %15 ], [ true, %17 ], [ true, %6 ]
  ret i1 %.0
}